target datalayout = "e-m:e-p270:32:32-p271:32:32-p272:64:64-i64:64-i128:128-f80:128-n8:16:32:64-S128"
target triple = "x86_64-pc-linux-gnu"

%struct.SoftAesBlock = type { i32, i32, i32, i32 }

; Function Attrs: inlinehint nounwind ssp uwtable
define internal { i64, i64 } @softaes_block_xor(i64 %0, i64 %1, i64 %2, i64 %3) #2 {
  %5 = alloca %struct.SoftAesBlock, align 4
  %6 = alloca %struct.SoftAesBlock, align 4
  %7 = alloca %struct.SoftAesBlock, align 4
  %8 = getelementptr inbounds nuw { i64, i64 }, ptr %6, i32 0, i32 0
  store i64 %0, ptr %8, align 4
  %9 = getelementptr inbounds nuw { i64, i64 }, ptr %6, i32 0, i32 1
  store i64 %1, ptr %9, align 4
  %10 = getelementptr inbounds nuw { i64, i64 }, ptr %7, i32 0, i32 0
  store i64 %2, ptr %10, align 4
  %11 = getelementptr inbounds nuw { i64, i64 }, ptr %7, i32 0, i32 1
  store i64 %3, ptr %11, align 4
  %12 = getelementptr inbounds nuw %struct.SoftAesBlock, ptr %5, i32 0, i32 0
  %13 = getelementptr inbounds nuw %struct.SoftAesBlock, ptr %6, i32 0, i32 0
  %14 = load i32, ptr %13, align 4
  %15 = getelementptr inbounds nuw %struct.SoftAesBlock, ptr %7, i32 0, i32 0
  %16 = load i32, ptr %15, align 4
  %17 = xor i32 %14, %16
  store i32 %17, ptr %12, align 4
  %18 = getelementptr inbounds nuw %struct.SoftAesBlock, ptr %5, i32 0, i32 1
  %19 = getelementptr inbounds nuw %struct.SoftAesBlock, ptr %6, i32 0, i32 1
  %20 = load i32, ptr %19, align 4
  %21 = getelementptr inbounds nuw %struct.SoftAesBlock, ptr %7, i32 0, i32 1
  %22 = load i32, ptr %21, align 4
  %23 = xor i32 %20, %22
  store i32 %23, ptr %18, align 4
  %24 = getelementptr inbounds nuw %struct.SoftAesBlock, ptr %5, i32 0, i32 2
  %25 = getelementptr inbounds nuw %struct.SoftAesBlock, ptr %6, i32 0, i32 2
  %26 = load i32, ptr %25, align 4
  %27 = getelementptr inbounds nuw %struct.SoftAesBlock, ptr %7, i32 0, i32 2
  %28 = load i32, ptr %27, align 4
  %29 = xor i32 %26, %28
  store i32 %29, ptr %24, align 4
  %30 = getelementptr inbounds nuw %struct.SoftAesBlock, ptr %5, i32 0, i32 3
  %31 = getelementptr inbounds nuw %struct.SoftAesBlock, ptr %6, i32 0, i32 3
  %32 = load i32, ptr %31, align 4
  %33 = getelementptr inbounds nuw %struct.SoftAesBlock, ptr %7, i32 0, i32 3
  %34 = load i32, ptr %33, align 4
  %35 = xor i32 %32, %34
  store i32 %35, ptr %30, align 4
  %36 = load { i64, i64 }, ptr %5, align 4
  ret { i64, i64 } %36
}

; Function Attrs: inlinehint nounwind ssp uwtable
define internal void @aegis128l_update(ptr noundef %0, i64 %1, i64 %2, i64 %3, i64 %4) #2 {
  %6 = alloca %struct.SoftAesBlock, align 4
  %7 = alloca %struct.SoftAesBlock, align 4
  %8 = alloca ptr, align 8
  %9 = alloca %struct.SoftAesBlock, align 4
  %10 = alloca %struct.SoftAesBlock, align 4
  %11 = alloca %struct.SoftAesBlock, align 4
  %12 = alloca %struct.SoftAesBlock, align 4
  %13 = alloca %struct.SoftAesBlock, align 4
  %14 = alloca %struct.SoftAesBlock, align 4
  %15 = alloca %struct.SoftAesBlock, align 4
  %16 = alloca %struct.SoftAesBlock, align 4
  %17 = alloca %struct.SoftAesBlock, align 4
  %18 = alloca %struct.SoftAesBlock, align 4
  %19 = alloca %struct.SoftAesBlock, align 4
  %20 = getelementptr inbounds nuw { i64, i64 }, ptr %6, i32 0, i32 0
  store i64 %1, ptr %20, align 4
  %21 = getelementptr inbounds nuw { i64, i64 }, ptr %6, i32 0, i32 1
  store i64 %2, ptr %21, align 4
  %22 = getelementptr inbounds nuw { i64, i64 }, ptr %7, i32 0, i32 0
  store i64 %3, ptr %22, align 4
  %23 = getelementptr inbounds nuw { i64, i64 }, ptr %7, i32 0, i32 1
  store i64 %4, ptr %23, align 4
  store ptr %0, ptr %8, align 8
  call void @llvm.lifetime.start.p0(i64 16, ptr %9) #8
  %24 = load ptr, ptr %8, align 8
  %25 = getelementptr %struct.SoftAesBlock, ptr %24, i64 7
  call void @llvm.memcpy.p0.p0.i64(ptr align 4 %9, ptr align 4 %25, i64 16, i1 false)
  %26 = load ptr, ptr %8, align 8
  %27 = getelementptr %struct.SoftAesBlock, ptr %26, i64 7
  call void @llvm.lifetime.start.p0(i64 16, ptr %10) #8
  %28 = load ptr, ptr %8, align 8
  %29 = getelementptr %struct.SoftAesBlock, ptr %28, i64 6
  %30 = load ptr, ptr %8, align 8
  %31 = getelementptr %struct.SoftAesBlock, ptr %30, i64 7
  %32 = getelementptr inbounds nuw { i64, i64 }, ptr %29, i32 0, i32 0
  %33 = load i64, ptr %32, align 4
  %34 = getelementptr inbounds nuw { i64, i64 }, ptr %29, i32 0, i32 1
  %35 = load i64, ptr %34, align 4
  %36 = getelementptr inbounds nuw { i64, i64 }, ptr %31, i32 0, i32 0
  %37 = load i64, ptr %36, align 4
  %38 = getelementptr inbounds nuw { i64, i64 }, ptr %31, i32 0, i32 1
  %39 = load i64, ptr %38, align 4
  %40 = call { i64, i64 } @_sodium_softaes_block_encrypt(i64 %33, i64 %35, i64 %37, i64 %39)
  %41 = getelementptr inbounds nuw { i64, i64 }, ptr %10, i32 0, i32 0
  %42 = extractvalue { i64, i64 } %40, 0
  store i64 %42, ptr %41, align 4
  %43 = getelementptr inbounds nuw { i64, i64 }, ptr %10, i32 0, i32 1
  %44 = extractvalue { i64, i64 } %40, 1
  store i64 %44, ptr %43, align 4
  call void @llvm.memcpy.p0.p0.i64(ptr align 4 %27, ptr align 4 %10, i64 16, i1 false)
  call void @llvm.lifetime.end.p0(i64 16, ptr %10) #8
  %45 = load ptr, ptr %8, align 8
  %46 = getelementptr %struct.SoftAesBlock, ptr %45, i64 6
  call void @llvm.lifetime.start.p0(i64 16, ptr %11) #8
  %47 = load ptr, ptr %8, align 8
  %48 = getelementptr %struct.SoftAesBlock, ptr %47, i64 5
  %49 = load ptr, ptr %8, align 8
  %50 = getelementptr %struct.SoftAesBlock, ptr %49, i64 6
  %51 = getelementptr inbounds nuw { i64, i64 }, ptr %48, i32 0, i32 0
  %52 = load i64, ptr %51, align 4
  %53 = getelementptr inbounds nuw { i64, i64 }, ptr %48, i32 0, i32 1
  %54 = load i64, ptr %53, align 4
  %55 = getelementptr inbounds nuw { i64, i64 }, ptr %50, i32 0, i32 0
  %56 = load i64, ptr %55, align 4
  %57 = getelementptr inbounds nuw { i64, i64 }, ptr %50, i32 0, i32 1
  %58 = load i64, ptr %57, align 4
  %59 = call { i64, i64 } @_sodium_softaes_block_encrypt(i64 %52, i64 %54, i64 %56, i64 %58)
  %60 = getelementptr inbounds nuw { i64, i64 }, ptr %11, i32 0, i32 0
  %61 = extractvalue { i64, i64 } %59, 0
  store i64 %61, ptr %60, align 4
  %62 = getelementptr inbounds nuw { i64, i64 }, ptr %11, i32 0, i32 1
  %63 = extractvalue { i64, i64 } %59, 1
  store i64 %63, ptr %62, align 4
  call void @llvm.memcpy.p0.p0.i64(ptr align 4 %46, ptr align 4 %11, i64 16, i1 false)
  call void @llvm.lifetime.end.p0(i64 16, ptr %11) #8
  %64 = load ptr, ptr %8, align 8
  %65 = getelementptr %struct.SoftAesBlock, ptr %64, i64 5
  call void @llvm.lifetime.start.p0(i64 16, ptr %12) #8
  %66 = load ptr, ptr %8, align 8
  %67 = getelementptr %struct.SoftAesBlock, ptr %66, i64 4
  %68 = load ptr, ptr %8, align 8
  %69 = getelementptr %struct.SoftAesBlock, ptr %68, i64 5
  %70 = getelementptr inbounds nuw { i64, i64 }, ptr %67, i32 0, i32 0
  %71 = load i64, ptr %70, align 4
  %72 = getelementptr inbounds nuw { i64, i64 }, ptr %67, i32 0, i32 1
  %73 = load i64, ptr %72, align 4
  %74 = getelementptr inbounds nuw { i64, i64 }, ptr %69, i32 0, i32 0
  %75 = load i64, ptr %74, align 4
  %76 = getelementptr inbounds nuw { i64, i64 }, ptr %69, i32 0, i32 1
  %77 = load i64, ptr %76, align 4
  %78 = call { i64, i64 } @_sodium_softaes_block_encrypt(i64 %71, i64 %73, i64 %75, i64 %77)
  %79 = getelementptr inbounds nuw { i64, i64 }, ptr %12, i32 0, i32 0
  %80 = extractvalue { i64, i64 } %78, 0
  store i64 %80, ptr %79, align 4
  %81 = getelementptr inbounds nuw { i64, i64 }, ptr %12, i32 0, i32 1
  %82 = extractvalue { i64, i64 } %78, 1
  store i64 %82, ptr %81, align 4
  call void @llvm.memcpy.p0.p0.i64(ptr align 4 %65, ptr align 4 %12, i64 16, i1 false)
  call void @llvm.lifetime.end.p0(i64 16, ptr %12) #8
  %83 = load ptr, ptr %8, align 8
  %84 = getelementptr %struct.SoftAesBlock, ptr %83, i64 4
  call void @llvm.lifetime.start.p0(i64 16, ptr %13) #8
  %85 = load ptr, ptr %8, align 8
  %86 = getelementptr %struct.SoftAesBlock, ptr %85, i64 3
  %87 = load ptr, ptr %8, align 8
  %88 = getelementptr %struct.SoftAesBlock, ptr %87, i64 4
  %89 = getelementptr inbounds nuw { i64, i64 }, ptr %86, i32 0, i32 0
  %90 = load i64, ptr %89, align 4
  %91 = getelementptr inbounds nuw { i64, i64 }, ptr %86, i32 0, i32 1
  %92 = load i64, ptr %91, align 4
  %93 = getelementptr inbounds nuw { i64, i64 }, ptr %88, i32 0, i32 0
  %94 = load i64, ptr %93, align 4
  %95 = getelementptr inbounds nuw { i64, i64 }, ptr %88, i32 0, i32 1
  %96 = load i64, ptr %95, align 4
  %97 = call { i64, i64 } @_sodium_softaes_block_encrypt(i64 %90, i64 %92, i64 %94, i64 %96)
  %98 = getelementptr inbounds nuw { i64, i64 }, ptr %13, i32 0, i32 0
  %99 = extractvalue { i64, i64 } %97, 0
  store i64 %99, ptr %98, align 4
  %100 = getelementptr inbounds nuw { i64, i64 }, ptr %13, i32 0, i32 1
  %101 = extractvalue { i64, i64 } %97, 1
  store i64 %101, ptr %100, align 4
  call void @llvm.memcpy.p0.p0.i64(ptr align 4 %84, ptr align 4 %13, i64 16, i1 false)
  call void @llvm.lifetime.end.p0(i64 16, ptr %13) #8
  %102 = load ptr, ptr %8, align 8
  %103 = getelementptr %struct.SoftAesBlock, ptr %102, i64 3
  call void @llvm.lifetime.start.p0(i64 16, ptr %14) #8
  %104 = load ptr, ptr %8, align 8
  %105 = getelementptr %struct.SoftAesBlock, ptr %104, i64 2
  %106 = load ptr, ptr %8, align 8
  %107 = getelementptr %struct.SoftAesBlock, ptr %106, i64 3
  %108 = getelementptr inbounds nuw { i64, i64 }, ptr %105, i32 0, i32 0
  %109 = load i64, ptr %108, align 4
  %110 = getelementptr inbounds nuw { i64, i64 }, ptr %105, i32 0, i32 1
  %111 = load i64, ptr %110, align 4
  %112 = getelementptr inbounds nuw { i64, i64 }, ptr %107, i32 0, i32 0
  %113 = load i64, ptr %112, align 4
  %114 = getelementptr inbounds nuw { i64, i64 }, ptr %107, i32 0, i32 1
  %115 = load i64, ptr %114, align 4
  %116 = call { i64, i64 } @_sodium_softaes_block_encrypt(i64 %109, i64 %111, i64 %113, i64 %115)
  %117 = getelementptr inbounds nuw { i64, i64 }, ptr %14, i32 0, i32 0
  %118 = extractvalue { i64, i64 } %116, 0
  store i64 %118, ptr %117, align 4
  %119 = getelementptr inbounds nuw { i64, i64 }, ptr %14, i32 0, i32 1
  %120 = extractvalue { i64, i64 } %116, 1
  store i64 %120, ptr %119, align 4
  call void @llvm.memcpy.p0.p0.i64(ptr align 4 %103, ptr align 4 %14, i64 16, i1 false)
  call void @llvm.lifetime.end.p0(i64 16, ptr %14) #8
  %121 = load ptr, ptr %8, align 8
  %122 = getelementptr %struct.SoftAesBlock, ptr %121, i64 2
  call void @llvm.lifetime.start.p0(i64 16, ptr %15) #8
  %123 = load ptr, ptr %8, align 8
  %124 = getelementptr %struct.SoftAesBlock, ptr %123, i64 1
  %125 = load ptr, ptr %8, align 8
  %126 = getelementptr %struct.SoftAesBlock, ptr %125, i64 2
  %127 = getelementptr inbounds nuw { i64, i64 }, ptr %124, i32 0, i32 0
  %128 = load i64, ptr %127, align 4
  %129 = getelementptr inbounds nuw { i64, i64 }, ptr %124, i32 0, i32 1
  %130 = load i64, ptr %129, align 4
  %131 = getelementptr inbounds nuw { i64, i64 }, ptr %126, i32 0, i32 0
  %132 = load i64, ptr %131, align 4
  %133 = getelementptr inbounds nuw { i64, i64 }, ptr %126, i32 0, i32 1
  %134 = load i64, ptr %133, align 4
  %135 = call { i64, i64 } @_sodium_softaes_block_encrypt(i64 %128, i64 %130, i64 %132, i64 %134)
  %136 = getelementptr inbounds nuw { i64, i64 }, ptr %15, i32 0, i32 0
  %137 = extractvalue { i64, i64 } %135, 0
  store i64 %137, ptr %136, align 4
  %138 = getelementptr inbounds nuw { i64, i64 }, ptr %15, i32 0, i32 1
  %139 = extractvalue { i64, i64 } %135, 1
  store i64 %139, ptr %138, align 4
  call void @llvm.memcpy.p0.p0.i64(ptr align 4 %122, ptr align 4 %15, i64 16, i1 false)
  call void @llvm.lifetime.end.p0(i64 16, ptr %15) #8
  %140 = load ptr, ptr %8, align 8
  %141 = getelementptr %struct.SoftAesBlock, ptr %140, i64 1
  call void @llvm.lifetime.start.p0(i64 16, ptr %16) #8
  %142 = load ptr, ptr %8, align 8
  %143 = getelementptr %struct.SoftAesBlock, ptr %142, i64 0
  %144 = load ptr, ptr %8, align 8
  %145 = getelementptr %struct.SoftAesBlock, ptr %144, i64 1
  %146 = getelementptr inbounds nuw { i64, i64 }, ptr %143, i32 0, i32 0
  %147 = load i64, ptr %146, align 4
  %148 = getelementptr inbounds nuw { i64, i64 }, ptr %143, i32 0, i32 1
  %149 = load i64, ptr %148, align 4
  %150 = getelementptr inbounds nuw { i64, i64 }, ptr %145, i32 0, i32 0
  %151 = load i64, ptr %150, align 4
  %152 = getelementptr inbounds nuw { i64, i64 }, ptr %145, i32 0, i32 1
  %153 = load i64, ptr %152, align 4
  %154 = call { i64, i64 } @_sodium_softaes_block_encrypt(i64 %147, i64 %149, i64 %151, i64 %153)
  %155 = getelementptr inbounds nuw { i64, i64 }, ptr %16, i32 0, i32 0
  %156 = extractvalue { i64, i64 } %154, 0
  store i64 %156, ptr %155, align 4
  %157 = getelementptr inbounds nuw { i64, i64 }, ptr %16, i32 0, i32 1
  %158 = extractvalue { i64, i64 } %154, 1
  store i64 %158, ptr %157, align 4
  call void @llvm.memcpy.p0.p0.i64(ptr align 4 %141, ptr align 4 %16, i64 16, i1 false)
  call void @llvm.lifetime.end.p0(i64 16, ptr %16) #8
  %159 = load ptr, ptr %8, align 8
  %160 = getelementptr %struct.SoftAesBlock, ptr %159, i64 0
  call void @llvm.lifetime.start.p0(i64 16, ptr %17) #8
  %161 = load ptr, ptr %8, align 8
  %162 = getelementptr %struct.SoftAesBlock, ptr %161, i64 0
  %163 = getelementptr inbounds nuw { i64, i64 }, ptr %9, i32 0, i32 0
  %164 = load i64, ptr %163, align 4
  %165 = getelementptr inbounds nuw { i64, i64 }, ptr %9, i32 0, i32 1
  %166 = load i64, ptr %165, align 4
  %167 = getelementptr inbounds nuw { i64, i64 }, ptr %162, i32 0, i32 0
  %168 = load i64, ptr %167, align 4
  %169 = getelementptr inbounds nuw { i64, i64 }, ptr %162, i32 0, i32 1
  %170 = load i64, ptr %169, align 4
  %171 = call { i64, i64 } @_sodium_softaes_block_encrypt(i64 %164, i64 %166, i64 %168, i64 %170)
  %172 = getelementptr inbounds nuw { i64, i64 }, ptr %17, i32 0, i32 0
  %173 = extractvalue { i64, i64 } %171, 0
  store i64 %173, ptr %172, align 4
  %174 = getelementptr inbounds nuw { i64, i64 }, ptr %17, i32 0, i32 1
  %175 = extractvalue { i64, i64 } %171, 1
  store i64 %175, ptr %174, align 4
  call void @llvm.memcpy.p0.p0.i64(ptr align 4 %160, ptr align 4 %17, i64 16, i1 false)
  call void @llvm.lifetime.end.p0(i64 16, ptr %17) #8
  %176 = load ptr, ptr %8, align 8
  %177 = getelementptr %struct.SoftAesBlock, ptr %176, i64 0
  call void @llvm.lifetime.start.p0(i64 16, ptr %18) #8
  %178 = load ptr, ptr %8, align 8
  %179 = getelementptr %struct.SoftAesBlock, ptr %178, i64 0
  %180 = getelementptr inbounds nuw { i64, i64 }, ptr %179, i32 0, i32 0
  %181 = load i64, ptr %180, align 4
  %182 = getelementptr inbounds nuw { i64, i64 }, ptr %179, i32 0, i32 1
  %183 = load i64, ptr %182, align 4
  %184 = getelementptr inbounds nuw { i64, i64 }, ptr %6, i32 0, i32 0
  %185 = load i64, ptr %184, align 4
  %186 = getelementptr inbounds nuw { i64, i64 }, ptr %6, i32 0, i32 1
  %187 = load i64, ptr %186, align 4
  %188 = call { i64, i64 } @softaes_block_xor(i64 %181, i64 %183, i64 %185, i64 %187)
  %189 = getelementptr inbounds nuw { i64, i64 }, ptr %18, i32 0, i32 0
  %190 = extractvalue { i64, i64 } %188, 0
  store i64 %190, ptr %189, align 4
  %191 = getelementptr inbounds nuw { i64, i64 }, ptr %18, i32 0, i32 1
  %192 = extractvalue { i64, i64 } %188, 1
  store i64 %192, ptr %191, align 4
  call void @llvm.memcpy.p0.p0.i64(ptr align 4 %177, ptr align 4 %18, i64 16, i1 false)
  call void @llvm.lifetime.end.p0(i64 16, ptr %18) #8
  %193 = load ptr, ptr %8, align 8
  %194 = getelementptr %struct.SoftAesBlock, ptr %193, i64 4
  call void @llvm.lifetime.start.p0(i64 16, ptr %19) #8
  %195 = load ptr, ptr %8, align 8
  %196 = getelementptr %struct.SoftAesBlock, ptr %195, i64 4
  %197 = getelementptr inbounds nuw { i64, i64 }, ptr %196, i32 0, i32 0
  %198 = load i64, ptr %197, align 4
  %199 = getelementptr inbounds nuw { i64, i64 }, ptr %196, i32 0, i32 1
  %200 = load i64, ptr %199, align 4
  %201 = getelementptr inbounds nuw { i64, i64 }, ptr %7, i32 0, i32 0
  %202 = load i64, ptr %201, align 4
  %203 = getelementptr inbounds nuw { i64, i64 }, ptr %7, i32 0, i32 1
  %204 = load i64, ptr %203, align 4
  %205 = call { i64, i64 } @softaes_block_xor(i64 %198, i64 %200, i64 %202, i64 %204)
  %206 = getelementptr inbounds nuw { i64, i64 }, ptr %19, i32 0, i32 0
  %207 = extractvalue { i64, i64 } %205, 0
  store i64 %207, ptr %206, align 4
  %208 = getelementptr inbounds nuw { i64, i64 }, ptr %19, i32 0, i32 1
  %209 = extractvalue { i64, i64 } %205, 1
  store i64 %209, ptr %208, align 4
  call void @llvm.memcpy.p0.p0.i64(ptr align 4 %194, ptr align 4 %19, i64 16, i1 false)
  call void @llvm.lifetime.end.p0(i64 16, ptr %19) #8
  call void @llvm.lifetime.end.p0(i64 16, ptr %9) #8
  ret void
}