; Function Attrs: inlinehint nounwind ssp uwtable
define internal fastcc void @aegis128l_update(ptr noundef nonnull captures(none) %0, i64 %1, i64 %2, i64 %3, i64 %4) unnamed_addr #2 {
  %6 = getelementptr i8, ptr %0, i64 112
  %.sroa.019.0.copyload = load i64, ptr %6, align 4
  %.sroa.420.0..sroa_idx = getelementptr i8, ptr %0, i64 120
  %.sroa.420.0.copyload = load i64, ptr %.sroa.420.0..sroa_idx, align 4
  %7 = getelementptr i8, ptr %0, i64 96
  %8 = load i64, ptr %7, align 4
  %9 = getelementptr i8, ptr %0, i64 104
  %10 = load i64, ptr %9, align 4
  %11 = tail call { i64, i64 } @_sodium_softaes_block_encrypt(i64 %8, i64 %10, i64 %.sroa.019.0.copyload, i64 %.sroa.420.0.copyload) #7
  %12 = extractvalue { i64, i64 } %11, 0
  %13 = extractvalue { i64, i64 } %11, 1
  store i64 %12, ptr %6, align 4
  store i64 %13, ptr %.sroa.420.0..sroa_idx, align 4
  %14 = getelementptr i8, ptr %0, i64 80
  %15 = load i64, ptr %14, align 4
  %16 = getelementptr i8, ptr %0, i64 88
  %17 = load i64, ptr %16, align 4
  %18 = load i64, ptr %7, align 4
  %19 = load i64, ptr %9, align 4
  %20 = tail call { i64, i64 } @_sodium_softaes_block_encrypt(i64 %15, i64 %17, i64 %18, i64 %19) #7
  %21 = extractvalue { i64, i64 } %20, 0
  %22 = extractvalue { i64, i64 } %20, 1
  store i64 %21, ptr %7, align 4
  store i64 %22, ptr %9, align 4
  %23 = getelementptr i8, ptr %0, i64 64
  %24 = load i64, ptr %23, align 4
  %25 = getelementptr i8, ptr %0, i64 72
  %26 = load i64, ptr %25, align 4
  %27 = load i64, ptr %14, align 4
  %28 = load i64, ptr %16, align 4
  %29 = tail call { i64, i64 } @_sodium_softaes_block_encrypt(i64 %24, i64 %26, i64 %27, i64 %28) #7
  %30 = extractvalue { i64, i64 } %29, 0
  %31 = extractvalue { i64, i64 } %29, 1
  store i64 %30, ptr %14, align 4
  store i64 %31, ptr %16, align 4
  %32 = getelementptr i8, ptr %0, i64 48
  %33 = load i64, ptr %32, align 4
  %34 = getelementptr i8, ptr %0, i64 56
  %35 = load i64, ptr %34, align 4
  %36 = load i64, ptr %23, align 4
  %37 = load i64, ptr %25, align 4
  %38 = tail call { i64, i64 } @_sodium_softaes_block_encrypt(i64 %33, i64 %35, i64 %36, i64 %37) #7
  %39 = extractvalue { i64, i64 } %38, 0
  %40 = extractvalue { i64, i64 } %38, 1
  store i64 %39, ptr %23, align 4
  store i64 %40, ptr %25, align 4
  %41 = getelementptr i8, ptr %0, i64 32
  %42 = load i64, ptr %41, align 4
  %43 = getelementptr i8, ptr %0, i64 40
  %44 = load i64, ptr %43, align 4
  %45 = load i64, ptr %32, align 4
  %46 = load i64, ptr %34, align 4
  %47 = tail call { i64, i64 } @_sodium_softaes_block_encrypt(i64 %42, i64 %44, i64 %45, i64 %46) #7
  %48 = extractvalue { i64, i64 } %47, 0
  %49 = extractvalue { i64, i64 } %47, 1
  store i64 %48, ptr %32, align 4
  store i64 %49, ptr %34, align 4
  %50 = getelementptr i8, ptr %0, i64 16
  %51 = load i64, ptr %50, align 4
  %52 = getelementptr i8, ptr %0, i64 24
  %53 = load i64, ptr %52, align 4
  %54 = load i64, ptr %41, align 4
  %55 = load i64, ptr %43, align 4
  %56 = tail call { i64, i64 } @_sodium_softaes_block_encrypt(i64 %51, i64 %53, i64 %54, i64 %55) #7
  %57 = extractvalue { i64, i64 } %56, 0
  %58 = extractvalue { i64, i64 } %56, 1
  store i64 %57, ptr %41, align 4
  store i64 %58, ptr %43, align 4
  %59 = load i64, ptr %0, align 4
  %60 = getelementptr inbounds nuw i8, ptr %0, i64 8
  %61 = load i64, ptr %60, align 4
  %62 = load i64, ptr %50, align 4
  %63 = load i64, ptr %52, align 4
  %64 = tail call { i64, i64 } @_sodium_softaes_block_encrypt(i64 %59, i64 %61, i64 %62, i64 %63) #7
  %65 = extractvalue { i64, i64 } %64, 0
  %66 = extractvalue { i64, i64 } %64, 1
  store i64 %65, ptr %50, align 4
  store i64 %66, ptr %52, align 4
  %67 = load i64, ptr %0, align 4
  %68 = load i64, ptr %60, align 4
  %69 = tail call { i64, i64 } @_sodium_softaes_block_encrypt(i64 %.sroa.019.0.copyload, i64 %.sroa.420.0.copyload, i64 %67, i64 %68) #7
  %70 = extractvalue { i64, i64 } %69, 0
  %71 = extractvalue { i64, i64 } %69, 1
  %72 = xor i64 %70, %1
  %73 = xor i64 %71, %2
  store i64 %72, ptr %0, align 4
  store i64 %73, ptr %60, align 4
  %74 = load i64, ptr %23, align 4
  %75 = load i64, ptr %25, align 4
  %76 = xor i64 %74, %3
  %77 = xor i64 %75, %4
  store i64 %76, ptr %23, align 4
  store i64 %77, ptr %25, align 4
  ret void
}